; Function Attrs: nounwind uwtable
define internal ptr @get_interpreter_refcount(ptr readnone captures(none) %0, ptr noundef %1) #0 {
  %3 = tail call ptr @_PyInterpreterState_LookUpIDObject(ptr noundef %1) #11
  %4 = icmp eq ptr %3, null
  br i1 %4, label %9, label %5

5:                                                ; preds = %2
  %6 = getelementptr inbounds nuw i8, ptr %3, i64 7280
  %7 = load i64, ptr %6, align 8, !tbaa !251
  %8 = tail call ptr @PyLong_FromLongLong(i64 noundef %7) #11
  br label %9

9:                                                ; preds = %2, %5
  %.0 = phi ptr [ %8, %5 ], [ null, %2 ]
  ret ptr %.0
}